; ModuleID = '20/1010.c'
source_filename = "20/1010.c"
target datalayout = "e-m:e-p270:32:32-p271:32:32-p272:64:64-i64:64-f80:128-n8:16:32:64-S128"
target triple = "x86_64-pc-linux-gnu"

@.str = private unnamed_addr constant [5 x i8] c"%s%s\00", align 1
@.str.1 = private unnamed_addr constant [4 x i8] c"%s\0A\00", align 1

; Function Attrs: noinline nounwind uwtable
define dso_local i32 @main(i32 %0, i8** %1) #0 {
  %3 = alloca i32, align 4
  %4 = alloca i32, align 4
  %5 = alloca i8**, align 8
  %6 = alloca [20 x i8], align 16
  %7 = alloca [20 x i8], align 16
  %8 = alloca [20 x i8], align 16
  %9 = alloca i32, align 4
  %10 = alloca i32, align 4
  %11 = alloca i32, align 4
  %12 = alloca i32, align 4
  %13 = alloca i32, align 4
  store i32 0, i32* %3, align 4
  store i32 %0, i32* %4, align 4
  store i8** %1, i8*** %5, align 8
  br label %14

14:                                               ; preds = %70, %2
  %15 = getelementptr inbounds [20 x i8], [20 x i8]* %6, i64 0, i64 0
  %16 = getelementptr inbounds [20 x i8], [20 x i8]* %7, i64 0, i64 0
  %17 = call i32 (i8*, ...) @__isoc99_scanf(i8* getelementptr inbounds ([5 x i8], [5 x i8]* @.str, i64 0, i64 0), i8* %15, i8* %16)
  %18 = icmp ne i32 %17, -1
  br i1 %18, label %19, label %89

19:                                               ; preds = %14
  %20 = getelementptr inbounds [20 x i8], [20 x i8]* %6, i64 0, i64 0
  %21 = call i64 @strlen(i8* %20) #4
  %22 = trunc i64 %21 to i32
  store i32 %22, i32* %12, align 4
  %23 = getelementptr inbounds [20 x i8], [20 x i8]* %6, i64 0, i64 0
  %24 = load i8, i8* %23, align 16
  %25 = sext i8 %24 to i32
  store i32 %25, i32* %13, align 4
  store i32 0, i32* %9, align 4
  br label %26

26:                                               ; preds = %46, %19
  %27 = load i32, i32* %9, align 4
  %28 = load i32, i32* %12, align 4
  %29 = icmp slt i32 %27, %28
  br i1 %29, label %30, label %49

30:                                               ; preds = %26
  %31 = load i32, i32* %9, align 4
  %32 = sext i32 %31 to i64
  %33 = getelementptr inbounds [20 x i8], [20 x i8]* %6, i64 0, i64 %32
  %34 = load i8, i8* %33, align 1
  %35 = sext i8 %34 to i32
  %36 = load i32, i32* %13, align 4
  %37 = icmp sgt i32 %35, %36
  br i1 %37, label %38, label %45

38:                                               ; preds = %30
  %39 = load i32, i32* %9, align 4
  %40 = sext i32 %39 to i64
  %41 = getelementptr inbounds [20 x i8], [20 x i8]* %6, i64 0, i64 %40
  %42 = load i8, i8* %41, align 1
  %43 = sext i8 %42 to i32
  store i32 %43, i32* %13, align 4
  %44 = load i32, i32* %9, align 4
  store i32 %44, i32* %11, align 4
  br label %45

45:                                               ; preds = %38, %30
  br label %46

46:                                               ; preds = %45
  %47 = load i32, i32* %9, align 4
  %48 = add nsw i32 %47, 1
  store i32 %48, i32* %9, align 4
  br label %26

49:                                               ; preds = %26
  %50 = load i32, i32* %11, align 4
  %51 = add nsw i32 %50, 1
  store i32 %51, i32* %10, align 4
  br label %52

52:                                               ; preds = %67, %49
  %53 = load i32, i32* %10, align 4
  %54 = load i32, i32* %12, align 4
  %55 = icmp slt i32 %53, %54
  br i1 %55, label %56, label %70

56:                                               ; preds = %52
  %57 = load i32, i32* %10, align 4
  %58 = sext i32 %57 to i64
  %59 = getelementptr inbounds [20 x i8], [20 x i8]* %6, i64 0, i64 %58
  %60 = load i8, i8* %59, align 1
  %61 = load i32, i32* %10, align 4
  %62 = load i32, i32* %11, align 4
  %63 = sub nsw i32 %61, %62
  %64 = sub nsw i32 %63, 1
  %65 = sext i32 %64 to i64
  %66 = getelementptr inbounds [20 x i8], [20 x i8]* %8, i64 0, i64 %65
  store i8 %60, i8* %66, align 1
  br label %67

67:                                               ; preds = %56
  %68 = load i32, i32* %10, align 4
  %69 = add nsw i32 %68, 1
  store i32 %69, i32* %10, align 4
  br label %52

70:                                               ; preds = %52
  %71 = load i32, i32* %11, align 4
  %72 = add nsw i32 %71, 1
  %73 = sext i32 %72 to i64
  %74 = getelementptr inbounds [20 x i8], [20 x i8]* %6, i64 0, i64 %73
  store i8 0, i8* %74, align 1
  %75 = load i32, i32* %12, align 4
  %76 = load i32, i32* %11, align 4
  %77 = sub nsw i32 %75, %76
  %78 = sub nsw i32 %77, 1
  %79 = sext i32 %78 to i64
  %80 = getelementptr inbounds [20 x i8], [20 x i8]* %8, i64 0, i64 %79
  store i8 0, i8* %80, align 1
  %81 = getelementptr inbounds [20 x i8], [20 x i8]* %6, i64 0, i64 0
  %82 = getelementptr inbounds [20 x i8], [20 x i8]* %7, i64 0, i64 0
  %83 = call i8* @strcat(i8* %81, i8* %82) #5
  %84 = getelementptr inbounds [20 x i8], [20 x i8]* %6, i64 0, i64 0
  %85 = getelementptr inbounds [20 x i8], [20 x i8]* %8, i64 0, i64 0
  %86 = call i8* @strcat(i8* %84, i8* %85) #5
  %87 = getelementptr inbounds [20 x i8], [20 x i8]* %6, i64 0, i64 0
  %88 = call i32 (i8*, ...) @printf(i8* getelementptr inbounds ([4 x i8], [4 x i8]* @.str.1, i64 0, i64 0), i8* %87)
  br label %14

89:                                               ; preds = %14
  ret i32 0
}

declare dso_local i32 @__isoc99_scanf(i8*, ...) #1

; Function Attrs: nounwind readonly
declare dso_local i64 @strlen(i8*) #2

; Function Attrs: nounwind
declare dso_local i8* @strcat(i8*, i8*) #3

declare dso_local i32 @printf(i8*, ...) #1


!llvm.module.flags = !{!0}
!llvm.ident = !{!1}

!0 = !{i32 1, !"wchar_size", i32 4}
!1 = !{!"clang version 10.0.0-4ubuntu1 "}
